target datalayout = "e-m:e-p270:32:32-p271:32:32-p272:64:64-i64:64-i128:128-f80:128-n8:16:32:64-S128"
target triple = "x86_64-pc-linux-gnu"

%struct.V360Context = type { ptr, i32, i32, i32, i32, i32, i32, i32, ptr, ptr, ptr, ptr, ptr, [6 x i32], [6 x i32], [6 x i32], [6 x i32], [3 x i32], i32, i32, float, float, i32, i32, float, float, float, float, float, i32, i32, i32, i32, i32, i32, i32, float, float, float, float, float, float, [2 x float], [2 x float], [2 x [4 x float]], [3 x float], i32, i32, i32, i32, [4 x i32], [4 x i32], [4 x i32], [4 x i32], [4 x i32], [4 x i32], [4 x i32], [4 x i32], [4 x i32], [4 x i32], [4 x i32], i32, i32, i32, i32, i32, i32, ptr, [4 x i32], ptr, ptr, ptr, ptr, ptr }

; Function Attrs: alwaysinline nounwind uwtable
define internal float @rescale(i32 noundef %0, float noundef %1) #12 {
  %3 = alloca i32, align 4
  %4 = alloca float, align 4
  store i32 %0, ptr %3, align 4, !tbaa !9
  store float %1, ptr %4, align 4, !tbaa !99
  %5 = load i32, ptr %3, align 4, !tbaa !9
  %6 = sitofp i32 %5 to float
  %7 = call nsz float @llvm.fmuladd.f32(float 2.000000e+00, float %6, float 1.000000e+00)
  %8 = load float, ptr %4, align 4, !tbaa !99
  %9 = fdiv nsz float %7, %8
  %10 = fsub nsz float %9, 1.000000e+00
  ret float %10
}

; Function Attrs: nounwind uwtable
define internal i32 @dfisheye_to_xyz(ptr noundef %0, i32 noundef %1, i32 noundef %2, i32 noundef %3, i32 noundef %4, ptr noundef %5) #0 {
  %7 = alloca ptr, align 8
  %8 = alloca i32, align 4
  %9 = alloca i32, align 4
  %10 = alloca i32, align 4
  %11 = alloca i32, align 4
  %12 = alloca ptr, align 8
  %13 = alloca float, align 4
  %14 = alloca float, align 4
  %15 = alloca i32, align 4
  %16 = alloca float, align 4
  %17 = alloca float, align 4
  %18 = alloca float, align 4
  %19 = alloca float, align 4
  %20 = alloca float, align 4
  %21 = alloca float, align 4
  %22 = alloca float, align 4
  %23 = alloca float, align 4
  store ptr %0, ptr %7, align 8, !tbaa !4
  store i32 %1, ptr %8, align 4, !tbaa !9
  store i32 %2, ptr %9, align 4, !tbaa !9
  store i32 %3, ptr %10, align 4, !tbaa !9
  store i32 %4, ptr %11, align 4, !tbaa !9
  store ptr %5, ptr %12, align 8, !tbaa !188
  call void @llvm.lifetime.start.p0(i64 4, ptr %13) #13
  %24 = load i32, ptr %10, align 4, !tbaa !9
  %25 = sitofp i32 %24 to float
  %26 = fmul nsz float %25, 5.000000e-01
  store float %26, ptr %13, align 4, !tbaa !99
  call void @llvm.lifetime.start.p0(i64 4, ptr %14) #13
  %27 = load i32, ptr %11, align 4, !tbaa !9
  %28 = sitofp i32 %27 to float
  store float %28, ptr %14, align 4, !tbaa !99
  call void @llvm.lifetime.start.p0(i64 4, ptr %15) #13
  %29 = load i32, ptr %8, align 4, !tbaa !9
  %30 = sitofp i32 %29 to float
  %31 = load float, ptr %13, align 4, !tbaa !99
  %32 = fcmp nsz oge float %30, %31
  br i1 %32, label %33, label %38

33:                                               ; preds = %6
  %34 = load i32, ptr %8, align 4, !tbaa !9
  %35 = sitofp i32 %34 to float
  %36 = load float, ptr %13, align 4, !tbaa !99
  %37 = fsub nsz float %35, %36
  br label %41

38:                                               ; preds = %6
  %39 = load i32, ptr %8, align 4, !tbaa !9
  %40 = sitofp i32 %39 to float
  br label %41

41:                                               ; preds = %38, %33
  %42 = phi nsz float [ %37, %33 ], [ %40, %38 ]
  %43 = fptosi float %42 to i32
  store i32 %43, ptr %15, align 4, !tbaa !9
  call void @llvm.lifetime.start.p0(i64 4, ptr %16) #13
  %44 = load i32, ptr %8, align 4, !tbaa !9
  %45 = sitofp i32 %44 to float
  %46 = load float, ptr %13, align 4, !tbaa !99
  %47 = fcmp nsz oge float %45, %46
  %48 = select nsz i1 %47, float 1.000000e+00, float -1.000000e+00
  store float %48, ptr %16, align 4, !tbaa !99
  call void @llvm.lifetime.start.p0(i64 4, ptr %17) #13
  %49 = load ptr, ptr %7, align 8, !tbaa !4
  %50 = getelementptr inbounds nuw %struct.V360Context, ptr %49, i32 0, i32 42
  %51 = getelementptr inbounds [2 x float], ptr %50, i64 0, i64 0
  %52 = load float, ptr %51, align 4, !tbaa !99
  %53 = load i32, ptr %15, align 4, !tbaa !9
  %54 = load float, ptr %13, align 4, !tbaa !99
  %55 = call nsz float @rescale(i32 noundef %53, float noundef %54)
  %56 = fmul nsz float %52, %55
  store float %56, ptr %17, align 4, !tbaa !99
  call void @llvm.lifetime.start.p0(i64 4, ptr %18) #13
  %57 = load ptr, ptr %7, align 8, !tbaa !4
  %58 = getelementptr inbounds nuw %struct.V360Context, ptr %57, i32 0, i32 42
  %59 = getelementptr inbounds [2 x float], ptr %58, i64 0, i64 1
  %60 = load float, ptr %59, align 4, !tbaa !99
  %61 = load i32, ptr %9, align 4, !tbaa !9
  %62 = load float, ptr %14, align 4, !tbaa !99
  %63 = call nsz float @rescale(i32 noundef %61, float noundef %62)
  %64 = fmul nsz float %60, %63
  store float %64, ptr %18, align 4, !tbaa !99
  call void @llvm.lifetime.start.p0(i64 4, ptr %19) #13
  %65 = load float, ptr %17, align 4, !tbaa !99
  %66 = load float, ptr %18, align 4, !tbaa !99
  %67 = call nsz float @hypotf(float noundef %65, float noundef %66) #14
  store float %67, ptr %19, align 4, !tbaa !99
  call void @llvm.lifetime.start.p0(i64 4, ptr %20) #13
  %68 = load float, ptr %19, align 4, !tbaa !99
  %69 = fcmp nsz ogt float %68, 0.000000e+00
  br i1 %69, label %70, label %72

70:                                               ; preds = %41
  %71 = load float, ptr %19, align 4, !tbaa !99
  br label %73

72:                                               ; preds = %41
  br label %73

73:                                               ; preds = %72, %70
  %74 = phi nsz float [ %71, %70 ], [ 1.000000e+00, %72 ]
  store float %74, ptr %20, align 4, !tbaa !99
  call void @llvm.lifetime.start.p0(i64 4, ptr %21) #13
  %75 = load float, ptr %16, align 4, !tbaa !99
  %76 = fpext nsz float %75 to double
  %77 = fmul nsz double %76, 0x3FF921FB54442D18
  %78 = load float, ptr %19, align 4, !tbaa !99
  %79 = fsub nsz float 1.000000e+00, %78
  %80 = fpext nsz float %79 to double
  %81 = fmul nsz double %77, %80
  %82 = fptrunc nsz double %81 to float
  store float %82, ptr %21, align 4, !tbaa !99
  call void @llvm.lifetime.start.p0(i64 4, ptr %22) #13
  %83 = load float, ptr %21, align 4, !tbaa !99
  %84 = call nsz float @llvm.sin.f32(float %83)
  store float %84, ptr %22, align 4, !tbaa !99
  call void @llvm.lifetime.start.p0(i64 4, ptr %23) #13
  %85 = load float, ptr %21, align 4, !tbaa !99
  %86 = call nsz float @llvm.cos.f32(float %85)
  store float %86, ptr %23, align 4, !tbaa !99
  %87 = load float, ptr %23, align 4, !tbaa !99
  %88 = load float, ptr %16, align 4, !tbaa !99
  %89 = fmul nsz float %87, %88
  %90 = load float, ptr %17, align 4, !tbaa !99
  %91 = fmul nsz float %89, %90
  %92 = load float, ptr %20, align 4, !tbaa !99
  %93 = fdiv nsz float %91, %92
  %94 = load ptr, ptr %12, align 8, !tbaa !188
  %95 = getelementptr inbounds float, ptr %94, i64 0
  store float %93, ptr %95, align 4, !tbaa !99
  %96 = load float, ptr %23, align 4, !tbaa !99
  %97 = load float, ptr %18, align 4, !tbaa !99
  %98 = fmul nsz float %96, %97
  %99 = load float, ptr %20, align 4, !tbaa !99
  %100 = fdiv nsz float %98, %99
  %101 = load ptr, ptr %12, align 8, !tbaa !188
  %102 = getelementptr inbounds float, ptr %101, i64 1
  store float %100, ptr %102, align 4, !tbaa !99
  %103 = load float, ptr %22, align 4, !tbaa !99
  %104 = load ptr, ptr %12, align 8, !tbaa !188
  %105 = getelementptr inbounds float, ptr %104, i64 2
  store float %103, ptr %105, align 4, !tbaa !99
  call void @llvm.lifetime.end.p0(i64 4, ptr %23) #13
  call void @llvm.lifetime.end.p0(i64 4, ptr %22) #13
  call void @llvm.lifetime.end.p0(i64 4, ptr %21) #13
  call void @llvm.lifetime.end.p0(i64 4, ptr %20) #13
  call void @llvm.lifetime.end.p0(i64 4, ptr %19) #13
  call void @llvm.lifetime.end.p0(i64 4, ptr %18) #13
  call void @llvm.lifetime.end.p0(i64 4, ptr %17) #13
  call void @llvm.lifetime.end.p0(i64 4, ptr %16) #13
  call void @llvm.lifetime.end.p0(i64 4, ptr %15) #13
  call void @llvm.lifetime.end.p0(i64 4, ptr %14) #13
  call void @llvm.lifetime.end.p0(i64 4, ptr %13) #13
  ret i32 1
}