; Function Attrs: mustprogress nofree norecurse nosync nounwind willreturn memory(argmem: readwrite) uwtable
define internal noundef i32 @dfisheye_to_xyz(ptr noundef readonly captures(none) %0, i32 noundef %1, i32 noundef %2, i32 noundef %3, i32 noundef %4, ptr noundef writeonly captures(none) initializes((0, 12)) %5) #0 {
  %7 = sitofp i32 %3 to float
  %8 = fmul nsz float %7, 5.000000e-01
  %9 = sitofp i32 %1 to float
  %10 = fcmp nsz ugt float %8, %9
  %11 = select i1 %10, float -1.000000e+00, float 1.000000e+00
  %12 = select nsz i1 %10, float 0.000000e+00, float %8
  %13 = fsub nsz float %9, %12
  %14 = sitofp i32 %4 to float
  %15 = fptosi float %13 to i32
  %16 = getelementptr inbounds nuw i8, ptr %0, i64 284
  %17 = load float, ptr %16, align 4, !tbaa !49
  %18 = sitofp i32 %15 to float
  %19 = tail call nsz float @llvm.fmuladd.f32(float %18, float 2.000000e+00, float 1.000000e+00)
  %20 = fdiv nsz float %19, %8
  %21 = fadd nsz float %20, -1.000000e+00
  %22 = fmul nsz float %21, %17
  %23 = getelementptr inbounds nuw i8, ptr %0, i64 288
  %24 = load float, ptr %23, align 4, !tbaa !49
  %25 = sitofp i32 %2 to float
  %26 = tail call nsz float @llvm.fmuladd.f32(float %25, float 2.000000e+00, float 1.000000e+00)
  %27 = fdiv nsz float %26, %14
  %28 = fadd nsz float %27, -1.000000e+00
  %29 = fmul nsz float %28, %24
  %30 = tail call nsz float @hypotf(float noundef %22, float noundef %29) #19
  %31 = fcmp nsz ogt float %30, 0.000000e+00
  %32 = select nsz i1 %31, float %30, float 1.000000e+00
  %33 = fpext nsz float %11 to double
  %34 = fmul nsz double %33, 0x3FF921FB54442D18
  %35 = fsub nsz float 1.000000e+00, %30
  %36 = fpext nsz float %35 to double
  %37 = fmul nsz double %34, %36
  %38 = fptrunc nsz double %37 to float
  %39 = tail call nsz float @llvm.sin.f32(float %38)
  %40 = tail call nsz float @llvm.cos.f32(float %38)
  %41 = fmul nsz float %11, %40
  %42 = fmul nsz float %22, %41
  %43 = fdiv nsz float %42, %32
  store float %43, ptr %5, align 4, !tbaa !49
  %44 = fmul nsz float %29, %40
  %45 = fdiv nsz float %44, %32
  %46 = getelementptr inbounds nuw i8, ptr %5, i64 4
  store float %45, ptr %46, align 4, !tbaa !49
  %47 = getelementptr inbounds nuw i8, ptr %5, i64 8
  store float %39, ptr %47, align 4, !tbaa !49
  ret i32 1
}